target datalayout = "e-m:e-p270:32:32-p271:32:32-p272:64:64-i64:64-i128:128-f80:128-n8:16:32:64-S128"
target triple = "x86_64-unknown-linux-gnu"

%"class.icu_75::UTF8CollationIterator" = type { %"class.icu_75::CollationIterator.base", ptr, i32, i32 }
%"class.icu_75::CollationIterator.base" = type <{ %"class.icu_75::UObject", ptr, ptr, %"class.icu_75::CollationIterator::CEBuffer", i32, [4 x i8], ptr, i32, i8 }>
%"class.icu_75::UObject" = type { ptr }
%"class.icu_75::CollationIterator::CEBuffer" = type { i32, %"class.icu_75::MaybeStackArray.0" }
%"class.icu_75::MaybeStackArray.0" = type { ptr, i32, i8, [40 x i64] }
%"class.icu_75::FCDUTF8CollationIterator" = type { %"class.icu_75::UTF8CollationIterator", i32, i32, i32, ptr, %"class.icu_75::UnicodeString" }
%"class.icu_75::UnicodeString" = type { %"class.icu_75::Replaceable", %"union.icu_75::UnicodeString::StackBufferOrFields" }
%"class.icu_75::Replaceable" = type { %"class.icu_75::UObject" }
%"union.icu_75::UnicodeString::StackBufferOrFields" = type { %struct.anon.1, [32 x i8] }
%struct.anon.1 = type { i16, i32, i32, ptr }

; Function Attrs: mustprogress nounwind uwtable
define void @_ZN6icu_7524FCDUTF8CollationIterator16switchToBackwardEv(ptr noundef nonnull align 8 dereferenceable(496) %this) #0 align 2 {
entry:
  %this.addr = alloca ptr, align 8
  store ptr %this, ptr %this.addr, align 8
  %this1 = load ptr, ptr %this.addr, align 8
  %state = getelementptr inbounds %"class.icu_75::FCDUTF8CollationIterator", ptr %this1, i32 0, i32 1
  %0 = load i32, ptr %state, align 8
  %cmp = icmp eq i32 %0, 0
  br i1 %cmp, label %if.then, label %if.else7

if.then:                                          ; preds = %entry
  %pos = getelementptr inbounds %"class.icu_75::UTF8CollationIterator", ptr %this1, i32 0, i32 2
  %1 = load i32, ptr %pos, align 8
  %limit = getelementptr inbounds %"class.icu_75::FCDUTF8CollationIterator", ptr %this1, i32 0, i32 3
  store i32 %1, ptr %limit, align 8
  %pos2 = getelementptr inbounds %"class.icu_75::UTF8CollationIterator", ptr %this1, i32 0, i32 2
  %2 = load i32, ptr %pos2, align 8
  %start = getelementptr inbounds %"class.icu_75::FCDUTF8CollationIterator", ptr %this1, i32 0, i32 2
  %3 = load i32, ptr %start, align 4
  %cmp3 = icmp eq i32 %2, %3
  br i1 %cmp3, label %if.then4, label %if.else

if.then4:                                         ; preds = %if.then
  %state5 = getelementptr inbounds %"class.icu_75::FCDUTF8CollationIterator", ptr %this1, i32 0, i32 1
  store i32 1, ptr %state5, align 8
  br label %if.end

if.else:                                          ; preds = %if.then
  %state6 = getelementptr inbounds %"class.icu_75::FCDUTF8CollationIterator", ptr %this1, i32 0, i32 1
  store i32 2, ptr %state6, align 8
  br label %if.end

if.end:                                           ; preds = %if.else, %if.then4
  br label %if.end17

if.else7:                                         ; preds = %entry
  %state8 = getelementptr inbounds %"class.icu_75::FCDUTF8CollationIterator", ptr %this1, i32 0, i32 1
  %4 = load i32, ptr %state8, align 8
  %cmp9 = icmp eq i32 %4, 2
  br i1 %cmp9, label %if.then10, label %if.else11

if.then10:                                        ; preds = %if.else7
  br label %if.end15

if.else11:                                        ; preds = %if.else7
  %start12 = getelementptr inbounds %"class.icu_75::FCDUTF8CollationIterator", ptr %this1, i32 0, i32 2
  %5 = load i32, ptr %start12, align 4
  %pos13 = getelementptr inbounds %"class.icu_75::UTF8CollationIterator", ptr %this1, i32 0, i32 2
  store i32 %5, ptr %pos13, align 8
  %limit14 = getelementptr inbounds %"class.icu_75::FCDUTF8CollationIterator", ptr %this1, i32 0, i32 3
  store i32 %5, ptr %limit14, align 8
  br label %if.end15

if.end15:                                         ; preds = %if.else11, %if.then10
  %state16 = getelementptr inbounds %"class.icu_75::FCDUTF8CollationIterator", ptr %this1, i32 0, i32 1
  store i32 1, ptr %state16, align 8
  br label %if.end17

if.end17:                                         ; preds = %if.end15, %if.end
  ret void
}