; Function Attrs: mustprogress nofree norecurse nosync nounwind willreturn memory(argmem: readwrite) uwtable
define void @_ZN6icu_7524FCDUTF8CollationIterator16switchToBackwardEv(ptr nocapture noundef nonnull align 8 dereferenceable(496) %this) local_unnamed_addr #8 align 2 {
entry:
  %state = getelementptr inbounds i8, ptr %this, i64 408
  %0 = load i32, ptr %state, align 8
  switch i32 %0, label %if.else11 [
    i32 0, label %if.then
    i32 2, label %if.end17
  ]

if.then:                                          ; preds = %entry
  %pos = getelementptr inbounds i8, ptr %this, i64 400
  %1 = load i32, ptr %pos, align 8
  %limit = getelementptr inbounds i8, ptr %this, i64 416
  store i32 %1, ptr %limit, align 8
  %start = getelementptr inbounds i8, ptr %this, i64 412
  %2 = load i32, ptr %start, align 4
  %cmp3 = icmp eq i32 %1, %2
  %. = select i1 %cmp3, i32 1, i32 2
  br label %if.end17

if.else11:                                        ; preds = %entry
  %start12 = getelementptr inbounds i8, ptr %this, i64 412
  %3 = load i32, ptr %start12, align 4
  %pos13 = getelementptr inbounds i8, ptr %this, i64 400
  store i32 %3, ptr %pos13, align 8
  %limit14 = getelementptr inbounds i8, ptr %this, i64 416
  store i32 %3, ptr %limit14, align 8
  br label %if.end17

if.end17:                                         ; preds = %if.else11, %entry, %if.then
  %.sink = phi i32 [ %., %if.then ], [ 1, %entry ], [ 1, %if.else11 ]
  store i32 %.sink, ptr %state, align 8
  ret void
}